target datalayout = "e-m:e-p270:32:32-p271:32:32-p272:64:64-i64:64-i128:128-f80:128-n8:16:32:64-S128"
target triple = "x86_64-pc-linux-gnu"

%struct.ComplexDateData = type { i32, i32, i64, float, i32, i32, i32, i32, i64 }
%struct.RBasic = type { i64, i64 }

@id_eqeq_p = internal global i64 0, align 8

; Function Attrs: inlinehint nounwind sspstrong willreturn memory(none) uwtable
define internal zeroext i1 @RB_IMMEDIATE_P(i64 noundef %0) #6 {
  %2 = alloca i64, align 8
  store i64 %0, ptr %2, align 8, !tbaa !6
  %3 = load i64, ptr %2, align 8, !tbaa !6
  %4 = and i64 %3, 7
  %5 = icmp ne i64 %4, 0
  ret i1 %5
}

; Function Attrs: inlinehint nounwind sspstrong willreturn memory(none) uwtable
define internal zeroext i1 @RB_FLONUM_P(i64 noundef %0) #6 {
  %2 = alloca i64, align 8
  store i64 %0, ptr %2, align 8, !tbaa !6
  %3 = load i64, ptr %2, align 8, !tbaa !6
  %4 = and i64 %3, 3
  %5 = icmp eq i64 %4, 2
  ret i1 %5
}

; Function Attrs: inlinehint nounwind sspstrong willreturn memory(none) uwtable
define internal zeroext i1 @RB_STATIC_SYM_P(i64 noundef %0) #6 {
  %2 = alloca i64, align 8
  %3 = alloca i64, align 8
  store i64 %0, ptr %2, align 8, !tbaa !6
  call void @llvm.lifetime.start.p0(i64 8, ptr %3) #23
  store i64 255, ptr %3, align 8, !tbaa !6
  %4 = load i64, ptr %2, align 8, !tbaa !6
  %5 = and i64 %4, 255
  %6 = icmp eq i64 %5, 12
  call void @llvm.lifetime.end.p0(i64 8, ptr %3) #23
  ret i1 %6
}

; Function Attrs: inlinehint nounwind sspstrong willreturn memory(read) uwtable
define internal i32 @RB_BUILTIN_TYPE(i64 noundef %0) #2 {
  %2 = alloca i64, align 8
  %3 = alloca i64, align 8
  store i64 %0, ptr %2, align 8, !tbaa !6
  call void @llvm.lifetime.start.p0(i64 8, ptr %3) #23
  %4 = load i64, ptr %2, align 8, !tbaa !6
  %5 = inttoptr i64 %4 to ptr
  %6 = getelementptr inbounds nuw %struct.RBasic, ptr %5, i32 0, i32 0
  %7 = load i64, ptr %6, align 8, !tbaa !61
  %8 = and i64 %7, 31
  store i64 %8, ptr %3, align 8, !tbaa !6
  %9 = load i64, ptr %3, align 8, !tbaa !6
  %10 = trunc i64 %9 to i32
  call void @llvm.lifetime.end.p0(i64 8, ptr %3) #23
  ret i32 %10
}

; Function Attrs: inlinehint nounwind sspstrong willreturn memory(none) uwtable
define internal zeroext i1 @RB_SPECIAL_CONST_P(i64 noundef %0) #6 {
  %2 = alloca i64, align 8
  store i64 %0, ptr %2, align 8, !tbaa !6
  %3 = load i64, ptr %2, align 8, !tbaa !6
  %4 = icmp eq i64 %3, 0
  br i1 %4, label %8, label %5

5:                                                ; preds = %1
  %6 = load i64, ptr %2, align 8, !tbaa !6
  %7 = call zeroext i1 @RB_IMMEDIATE_P(i64 noundef %6) #24
  br label %8

8:                                                ; preds = %5, %1
  %9 = phi i1 [ true, %1 ], [ %7, %5 ]
  ret i1 %9
}

; Function Attrs: inlinehint nounwind sspstrong willreturn memory(none) uwtable
define internal i64 @rbimpl_fix2long_by_idiv(i64 noundef %0) #6 {
  %2 = alloca i64, align 8
  %3 = alloca i64, align 8
  %4 = alloca i64, align 8
  %5 = alloca i64, align 8
  store i64 %0, ptr %2, align 8, !tbaa !6
  call void @llvm.lifetime.start.p0(i64 8, ptr %3) #23
  %6 = load i64, ptr %2, align 8, !tbaa !6
  %7 = sub i64 %6, 1
  store i64 %7, ptr %3, align 8, !tbaa !6
  call void @llvm.lifetime.start.p0(i64 8, ptr %4) #23
  %8 = load i64, ptr %3, align 8, !tbaa !6
  %9 = sdiv i64 %8, 2
  store i64 %9, ptr %4, align 8, !tbaa !6
  call void @llvm.lifetime.start.p0(i64 8, ptr %5) #23
  %10 = load i64, ptr %4, align 8, !tbaa !6
  store i64 %10, ptr %5, align 8, !tbaa !6
  %11 = load i64, ptr %5, align 8, !tbaa !6
  call void @llvm.lifetime.end.p0(i64 8, ptr %5) #23
  call void @llvm.lifetime.end.p0(i64 8, ptr %4) #23
  call void @llvm.lifetime.end.p0(i64 8, ptr %3) #23
  ret i64 %11
}

; Function Attrs: inlinehint nounwind sspstrong willreturn memory(none) uwtable
define internal i64 @rbimpl_fix2long_by_shift(i64 noundef %0) #6 {
  %2 = alloca i64, align 8
  %3 = alloca i64, align 8
  %4 = alloca i64, align 8
  %5 = alloca i64, align 8
  store i64 %0, ptr %2, align 8, !tbaa !6
  call void @llvm.lifetime.start.p0(i64 8, ptr %3) #23
  %6 = load i64, ptr %2, align 8, !tbaa !6
  store i64 %6, ptr %3, align 8, !tbaa !6
  call void @llvm.lifetime.start.p0(i64 8, ptr %4) #23
  %7 = load i64, ptr %3, align 8, !tbaa !6
  %8 = ashr i64 %7, 1
  store i64 %8, ptr %4, align 8, !tbaa !6
  call void @llvm.lifetime.start.p0(i64 8, ptr %5) #23
  %9 = load i64, ptr %4, align 8, !tbaa !6
  store i64 %9, ptr %5, align 8, !tbaa !6
  %10 = load i64, ptr %5, align 8, !tbaa !6
  call void @llvm.lifetime.end.p0(i64 8, ptr %5) #23
  call void @llvm.lifetime.end.p0(i64 8, ptr %4) #23
  call void @llvm.lifetime.end.p0(i64 8, ptr %3) #23
  ret i64 %10
}

; Function Attrs: inlinehint nounwind sspstrong willreturn memory(none) uwtable
define internal zeroext i1 @rbimpl_right_shift_is_arithmetic_p() #6 {
  ret i1 true
}

; Function Attrs: inlinehint nounwind sspstrong willreturn memory(none) uwtable
define internal zeroext i1 @RB_FIXNUM_P(i64 noundef %0) #6 {
  %2 = alloca i64, align 8
  store i64 %0, ptr %2, align 8, !tbaa !6
  %3 = load i64, ptr %2, align 8, !tbaa !6
  %4 = and i64 %3, 1
  %5 = icmp ne i64 %4, 0
  ret i1 %5
}

; Function Attrs: inlinehint nounwind sspstrong willreturn memory(read) uwtable
define internal i32 @rb_type(i64 noundef %0) #2 {
  %2 = alloca i32, align 4
  %3 = alloca i64, align 8
  store i64 %0, ptr %3, align 8, !tbaa !6
  %4 = load i64, ptr %3, align 8, !tbaa !6
  %5 = call zeroext i1 @RB_SPECIAL_CONST_P(i64 noundef %4) #24
  br i1 %5, label %9, label %6

6:                                                ; preds = %1
  %7 = load i64, ptr %3, align 8, !tbaa !6
  %8 = call i32 @RB_BUILTIN_TYPE(i64 noundef %7) #22
  store i32 %8, ptr %2, align 4
  br label %36

9:                                                ; preds = %1
  %10 = load i64, ptr %3, align 8, !tbaa !6
  %11 = icmp eq i64 %10, 0
  br i1 %11, label %12, label %13

12:                                               ; preds = %9
  store i32 19, ptr %2, align 4
  br label %36

13:                                               ; preds = %9
  %14 = load i64, ptr %3, align 8, !tbaa !6
  %15 = icmp eq i64 %14, 4
  br i1 %15, label %16, label %17

16:                                               ; preds = %13
  store i32 17, ptr %2, align 4
  br label %36

17:                                               ; preds = %13
  %18 = load i64, ptr %3, align 8, !tbaa !6
  %19 = icmp eq i64 %18, 20
  br i1 %19, label %20, label %21

20:                                               ; preds = %17
  store i32 18, ptr %2, align 4
  br label %36

21:                                               ; preds = %17
  %22 = load i64, ptr %3, align 8, !tbaa !6
  %23 = icmp eq i64 %22, 36
  br i1 %23, label %24, label %25

24:                                               ; preds = %21
  store i32 22, ptr %2, align 4
  br label %36

25:                                               ; preds = %21
  %26 = load i64, ptr %3, align 8, !tbaa !6
  %27 = call zeroext i1 @RB_FIXNUM_P(i64 noundef %26) #24
  br i1 %27, label %28, label %29

28:                                               ; preds = %25
  store i32 21, ptr %2, align 4
  br label %36

29:                                               ; preds = %25
  %30 = load i64, ptr %3, align 8, !tbaa !6
  %31 = call zeroext i1 @RB_STATIC_SYM_P(i64 noundef %30) #24
  br i1 %31, label %32, label %33

32:                                               ; preds = %29
  store i32 20, ptr %2, align 4
  br label %36

33:                                               ; preds = %29
  %34 = load i64, ptr %3, align 8, !tbaa !6
  %35 = call zeroext i1 @RB_FLONUM_P(i64 noundef %34) #24
  call void @llvm.assume(i1 %35)
  store i32 4, ptr %2, align 4
  br label %36

36:                                               ; preds = %33, %32, %28, %24, %20, %16, %12, %6
  %37 = load i32, ptr %2, align 4
  ret i32 %37
}

; Function Attrs: inlinehint nounwind sspstrong willreturn memory(none) uwtable
define internal i64 @RB_INT2FIX(i64 noundef %0) #6 {
  %2 = alloca i64, align 8
  %3 = alloca i64, align 8
  %4 = alloca i64, align 8
  %5 = alloca i64, align 8
  %6 = alloca i64, align 8
  %7 = alloca i64, align 8
  store i64 %0, ptr %2, align 8, !tbaa !6
  call void @llvm.lifetime.start.p0(i64 8, ptr %3) #23
  %8 = load i64, ptr %2, align 8, !tbaa !6
  store i64 %8, ptr %3, align 8, !tbaa !6
  call void @llvm.lifetime.start.p0(i64 8, ptr %4) #23
  %9 = load i64, ptr %3, align 8, !tbaa !6
  %10 = shl i64 %9, 1
  %11 = add i64 %10, 1
  store i64 %11, ptr %4, align 8, !tbaa !6
  call void @llvm.lifetime.start.p0(i64 8, ptr %5) #23
  %12 = load i64, ptr %4, align 8, !tbaa !6
  store i64 %12, ptr %5, align 8, !tbaa !6
  call void @llvm.lifetime.start.p0(i64 8, ptr %6) #23
  %13 = load i64, ptr %5, align 8, !tbaa !6
  store i64 %13, ptr %6, align 8, !tbaa !6
  call void @llvm.lifetime.start.p0(i64 8, ptr %7) #23
  %14 = load i64, ptr %6, align 8, !tbaa !6
  store i64 %14, ptr %7, align 8, !tbaa !6
  %15 = load i64, ptr %7, align 8, !tbaa !6
  call void @llvm.lifetime.end.p0(i64 8, ptr %7) #23
  call void @llvm.lifetime.end.p0(i64 8, ptr %6) #23
  call void @llvm.lifetime.end.p0(i64 8, ptr %5) #23
  call void @llvm.lifetime.end.p0(i64 8, ptr %4) #23
  call void @llvm.lifetime.end.p0(i64 8, ptr %3) #23
  ret i64 %15
}

; Function Attrs: inlinehint nounwind sspstrong willreturn memory(none) uwtable
define internal i64 @rb_fix2long(i64 noundef %0) #6 {
  %2 = alloca i64, align 8
  %3 = alloca i64, align 8
  store i64 %0, ptr %3, align 8, !tbaa !6
  %4 = call zeroext i1 @rbimpl_right_shift_is_arithmetic_p() #24
  br i1 %4, label %5, label %8

5:                                                ; preds = %1
  %6 = load i64, ptr %3, align 8, !tbaa !6
  %7 = call i64 @rbimpl_fix2long_by_shift(i64 noundef %6) #24
  store i64 %7, ptr %2, align 8
  br label %11

8:                                                ; preds = %1
  %9 = load i64, ptr %3, align 8, !tbaa !6
  %10 = call i64 @rbimpl_fix2long_by_idiv(i64 noundef %9) #24
  store i64 %10, ptr %2, align 8
  br label %11

11:                                               ; preds = %8, %5
  %12 = load i64, ptr %2, align 8
  ret i64 %12
}

; Function Attrs: nounwind sspstrong uwtable
define internal i32 @safe_mul_p(i64 noundef %0, i64 noundef %1) #0 {
  %3 = alloca i32, align 4
  %4 = alloca i64, align 8
  %5 = alloca i64, align 8
  %6 = alloca i64, align 8
  %7 = alloca i32, align 4
  store i64 %0, ptr %4, align 8, !tbaa !6
  store i64 %1, ptr %5, align 8, !tbaa !6
  call void @llvm.lifetime.start.p0(i64 8, ptr %6) #23
  %8 = load i64, ptr %4, align 8, !tbaa !6
  %9 = call zeroext i1 @RB_FIXNUM_P(i64 noundef %8) #24
  br i1 %9, label %11, label %10

10:                                               ; preds = %2
  store i32 0, ptr %3, align 4
  store i32 1, ptr %7, align 4
  br label %31

11:                                               ; preds = %2
  %12 = load i64, ptr %4, align 8, !tbaa !6
  %13 = call i64 @rb_fix2long(i64 noundef %12) #24
  store i64 %13, ptr %6, align 8, !tbaa !6
  %14 = load i64, ptr %6, align 8, !tbaa !6
  %15 = icmp slt i64 %14, 0
  br i1 %15, label %16, label %23

16:                                               ; preds = %11
  %17 = load i64, ptr %6, align 8, !tbaa !6
  %18 = load i64, ptr %5, align 8, !tbaa !6
  %19 = sdiv i64 -4611686018427387904, %18
  %20 = icmp sle i64 %17, %19
  br i1 %20, label %21, label %22

21:                                               ; preds = %16
  store i32 0, ptr %3, align 4
  store i32 1, ptr %7, align 4
  br label %31

22:                                               ; preds = %16
  br label %30

23:                                               ; preds = %11
  %24 = load i64, ptr %6, align 8, !tbaa !6
  %25 = load i64, ptr %5, align 8, !tbaa !6
  %26 = sdiv i64 4611686018427387903, %25
  %27 = icmp sge i64 %24, %26
  br i1 %27, label %28, label %29

28:                                               ; preds = %23
  store i32 0, ptr %3, align 4
  store i32 1, ptr %7, align 4
  br label %31

29:                                               ; preds = %23
  br label %30

30:                                               ; preds = %29, %22
  store i32 1, ptr %3, align 4
  store i32 1, ptr %7, align 4
  br label %31

31:                                               ; preds = %30, %28, %21, %10
  call void @llvm.lifetime.end.p0(i64 8, ptr %6) #23
  %32 = load i32, ptr %3, align 4
  ret i32 %32
}

; Function Attrs: inlinehint nounwind sspstrong uwtable
define internal i64 @f_zero_p(i64 noundef %0) #3 {
  %2 = alloca i64, align 8
  %3 = alloca i64, align 8
  %4 = alloca i64, align 8
  store i64 %0, ptr %3, align 8, !tbaa !6
  %5 = load i64, ptr %3, align 8, !tbaa !6
  %6 = call i32 @rb_type(i64 noundef %5) #22
  switch i32 %6, label %25 [
    i32 21, label %7
    i32 10, label %12
    i32 15, label %13
  ]

7:                                                ; preds = %1
  %8 = load i64, ptr %3, align 8, !tbaa !6
  %9 = call i64 @rb_fix2long(i64 noundef %8) #24
  %10 = icmp eq i64 %9, 0
  %11 = select i1 %10, i64 20, i64 0
  store i64 %11, ptr %2, align 8
  br label %29

12:                                               ; preds = %1
  store i64 0, ptr %2, align 8
  br label %29

13:                                               ; preds = %1
  call void @llvm.lifetime.start.p0(i64 8, ptr %4) #23
  %14 = load i64, ptr %3, align 8, !tbaa !6
  %15 = call i64 @rb_rational_num(i64 noundef %14) #22
  store i64 %15, ptr %4, align 8, !tbaa !6
  %16 = load i64, ptr %4, align 8, !tbaa !6
  %17 = call zeroext i1 @RB_FIXNUM_P(i64 noundef %16) #24
  br i1 %17, label %18, label %22

18:                                               ; preds = %13
  %19 = load i64, ptr %4, align 8, !tbaa !6
  %20 = call i64 @rb_fix2long(i64 noundef %19) #24
  %21 = icmp eq i64 %20, 0
  br label %22

22:                                               ; preds = %18, %13
  %23 = phi i1 [ false, %13 ], [ %21, %18 ]
  %24 = select i1 %23, i64 20, i64 0
  store i64 %24, ptr %2, align 8
  call void @llvm.lifetime.end.p0(i64 8, ptr %4) #23
  br label %29

25:                                               ; preds = %1
  %26 = load i64, ptr %3, align 8, !tbaa !6
  %27 = load i64, ptr @id_eqeq_p, align 8, !tbaa !6
  %28 = call i64 (i64, i64, i32, ...) @rb_funcall(i64 noundef %26, i64 noundef %27, i32 noundef 1, i64 noundef 1)
  store i64 %28, ptr %2, align 8
  br label %29

29:                                               ; preds = %25, %22, %12, %7
  %30 = load i64, ptr %2, align 8
  ret i64 %30
}

; Function Attrs: inlinehint nounwind sspstrong uwtable
define internal i64 @m_sf(ptr noundef %0) #3 {
  %2 = alloca i64, align 8
  %3 = alloca ptr, align 8
  store ptr %0, ptr %3, align 8, !tbaa !27
  %4 = load ptr, ptr %3, align 8, !tbaa !27
  %5 = load i32, ptr %4, align 8, !tbaa !38
  %6 = and i32 %5, 128
  %7 = icmp ne i32 %6, 0
  br i1 %7, label %9, label %8

8:                                                ; preds = %1
  store i64 1, ptr %2, align 8
  br label %13

9:                                                ; preds = %1
  %10 = load ptr, ptr %3, align 8, !tbaa !27
  %11 = getelementptr inbounds nuw %struct.ComplexDateData, ptr %10, i32 0, i32 8
  %12 = load i64, ptr %11, align 8, !tbaa !38
  store i64 %12, ptr %2, align 8
  br label %13

13:                                               ; preds = %9, %8
  %14 = load i64, ptr %2, align 8
  ret i64 %14
}

; Function Attrs: nounwind sspstrong uwtable
define internal i64 @sec_to_ms(i64 noundef %0) #0 {
  %2 = alloca i64, align 8
  %3 = alloca i64, align 8
  store i64 %0, ptr %3, align 8, !tbaa !6
  %4 = load i64, ptr %3, align 8, !tbaa !6
  %5 = call i32 @safe_mul_p(i64 noundef %4, i64 noundef 1000)
  %6 = icmp ne i32 %5, 0
  br i1 %6, label %7, label %12

7:                                                ; preds = %1
  %8 = load i64, ptr %3, align 8, !tbaa !6
  %9 = call i64 @rb_fix2long(i64 noundef %8) #24
  %10 = mul nsw i64 %9, 1000
  %11 = call i64 @RB_INT2FIX(i64 noundef %10) #24
  store i64 %11, ptr %2, align 8
  br label %15

12:                                               ; preds = %1
  %13 = load i64, ptr %3, align 8, !tbaa !6
  %14 = call i64 (i64, i64, i32, ...) @rb_funcall(i64 noundef %13, i64 noundef 42, i32 noundef 1, i64 noundef 2001)
  store i64 %14, ptr %2, align 8
  br label %15

15:                                               ; preds = %12, %7
  %16 = load i64, ptr %2, align 8
  ret i64 %16
}

; Function Attrs: nounwind sspstrong uwtable
define internal i64 @tmx_m_msecs(ptr noundef %0) #0 {
  %2 = alloca i64, align 8
  %3 = alloca ptr, align 8
  %4 = alloca i64, align 8
  %5 = alloca i64, align 8
  %6 = alloca i32, align 4
  store ptr %0, ptr %3, align 8, !tbaa !27
  call void @llvm.lifetime.start.p0(i64 8, ptr %4) #23
  call void @llvm.lifetime.start.p0(i64 8, ptr %5) #23
  %7 = load ptr, ptr %3, align 8, !tbaa !27
  %8 = call i64 @tmx_m_secs(ptr noundef %7)
  %9 = call i64 @sec_to_ms(i64 noundef %8)
  store i64 %9, ptr %4, align 8, !tbaa !6
  %10 = load ptr, ptr %3, align 8, !tbaa !27
  %11 = load i32, ptr %10, align 8, !tbaa !38
  %12 = and i32 %11, 128
  %13 = icmp ne i32 %12, 0
  br i1 %13, label %16, label %14

14:                                               ; preds = %1
  %15 = load i64, ptr %4, align 8, !tbaa !6
  store i64 %15, ptr %2, align 8
  store i32 1, ptr %6, align 4
  br label %29

16:                                               ; preds = %1
  %17 = load ptr, ptr %3, align 8, !tbaa !27
  %18 = call i64 @m_sf(ptr noundef %17)
  store i64 %18, ptr %5, align 8, !tbaa !6
  %19 = load i64, ptr %5, align 8, !tbaa !6
  %20 = call i64 @f_zero_p(i64 noundef %19)
  %21 = icmp ne i64 %20, 0
  br i1 %21, label %27, label %22

22:                                               ; preds = %16
  %23 = load i64, ptr %4, align 8, !tbaa !6
  %24 = load i64, ptr %5, align 8, !tbaa !6
  %25 = call i64 (i64, i64, i32, ...) @rb_funcall(i64 noundef %24, i64 noundef 47, i32 noundef 1, i64 noundef 2000001)
  %26 = call i64 (i64, i64, i32, ...) @rb_funcall(i64 noundef %23, i64 noundef 43, i32 noundef 1, i64 noundef %25)
  store i64 %26, ptr %4, align 8, !tbaa !6
  br label %27

27:                                               ; preds = %22, %16
  %28 = load i64, ptr %4, align 8, !tbaa !6
  store i64 %28, ptr %2, align 8
  store i32 1, ptr %6, align 4
  br label %29

29:                                               ; preds = %27, %14
  call void @llvm.lifetime.end.p0(i64 8, ptr %5) #23
  call void @llvm.lifetime.end.p0(i64 8, ptr %4) #23
  %30 = load i64, ptr %2, align 8
  ret i64 %30
}