; Function Attrs: nounwind sspstrong uwtable
define internal i64 @tmx_m_msecs(ptr noundef captures(none) %0) #0 {
  %2 = tail call i64 @tmx_m_secs(ptr noundef %0)
  %3 = and i64 %2, 1
  %.not10.i.i = icmp eq i64 %3, 0
  br i1 %.not10.i.i, label %12, label %4

4:                                                ; preds = %1
  %5 = ashr i64 %2, 1
  %6 = icmp slt i64 %5, 0
  br i1 %6, label %7, label %8

7:                                                ; preds = %4
  %.not9.i.i = icmp samesign ugt i64 %5, -4611686018427387
  br i1 %.not9.i.i, label %safe_mul_p.exit.i, label %12

8:                                                ; preds = %4
  %.not.i.i = icmp samesign ult i64 %5, 4611686018427387
  br i1 %.not.i.i, label %safe_mul_p.exit.i, label %12

safe_mul_p.exit.i:                                ; preds = %8, %7
  %9 = lshr i64 %2, 1
  %10 = mul i64 %9, 2000
  %11 = or disjoint i64 %10, 1
  br label %sec_to_ms.exit

12:                                               ; preds = %8, %7, %1
  %13 = tail call i64 (i64, i64, i32, ...) @rb_funcall(i64 noundef %2, i64 noundef 42, i32 noundef 1, i64 noundef 2001) #21
  br label %sec_to_ms.exit

sec_to_ms.exit:                                   ; preds = %safe_mul_p.exit.i, %12
  %.0.i = phi i64 [ %11, %safe_mul_p.exit.i ], [ %13, %12 ]
  %14 = load i32, ptr %0, align 8, !tbaa !47
  %15 = and i32 %14, 128
  %.not = icmp eq i32 %15, 0
  br i1 %.not, label %f_zero_p.exit.thread18, label %m_sf.exit

m_sf.exit:                                        ; preds = %sec_to_ms.exit
  %16 = getelementptr inbounds nuw i8, ptr %0, i64 40
  %17 = load i64, ptr %16, align 8, !tbaa !47
  %18 = icmp eq i64 %17, 0
  %19 = and i64 %17, 7
  %20 = icmp ne i64 %19, 0
  %21 = or i1 %18, %20
  br i1 %21, label %22, label %rb_type.exit.i

22:                                               ; preds = %m_sf.exit
  %23 = tail call i64 @llvm.fshl.i64(i64 %17, i64 %17, i64 62)
  switch i64 %23, label %24 [
    i64 0, label %f_zero_p.exit
    i64 1, label %f_zero_p.exit
    i64 5, label %f_zero_p.exit
    i64 9, label %f_zero_p.exit
  ]

24:                                               ; preds = %22
  %25 = and i64 %17, 1
  %.not.i.i13 = icmp eq i64 %25, 0
  br i1 %.not.i.i13, label %f_zero_p.exit, label %rb_type.exit.thread8.i

rb_type.exit.i:                                   ; preds = %m_sf.exit
  %26 = inttoptr i64 %17 to ptr
  %27 = load i64, ptr %26, align 8, !tbaa !35
  %28 = trunc i64 %27 to i32
  %29 = and i32 %28, 31
  switch i32 %29, label %f_zero_p.exit [
    i32 21, label %rb_type.exit.thread8.i
    i32 10, label %f_zero_p.exit.thread
    i32 15, label %31
  ]

rb_type.exit.thread8.i:                           ; preds = %rb_type.exit.i, %24
  %30 = icmp ult i64 %17, 2
  br i1 %30, label %f_zero_p.exit.thread18, label %f_zero_p.exit.thread

31:                                               ; preds = %rb_type.exit.i
  %32 = tail call i64 @rb_rational_num(i64 noundef %17) #24
  %or.cond = icmp eq i64 %32, 1
  br i1 %or.cond, label %f_zero_p.exit.thread18, label %f_zero_p.exit.thread

f_zero_p.exit:                                    ; preds = %22, %22, %22, %22, %24, %rb_type.exit.i
  %33 = load i64, ptr @id_eqeq_p, align 8, !tbaa !6
  %34 = tail call i64 (i64, i64, i32, ...) @rb_funcall(i64 noundef %17, i64 noundef %33, i32 noundef 1, i64 noundef 1) #21
  %.not9 = icmp eq i64 %34, 0
  br i1 %.not9, label %f_zero_p.exit.thread, label %f_zero_p.exit.thread18

f_zero_p.exit.thread:                             ; preds = %31, %rb_type.exit.i, %rb_type.exit.thread8.i, %f_zero_p.exit
  %35 = tail call i64 (i64, i64, i32, ...) @rb_funcall(i64 noundef %17, i64 noundef 47, i32 noundef 1, i64 noundef 2000001) #21
  %36 = tail call i64 (i64, i64, i32, ...) @rb_funcall(i64 noundef %.0.i, i64 noundef 43, i32 noundef 1, i64 noundef %35) #21
  br label %f_zero_p.exit.thread18

f_zero_p.exit.thread18:                           ; preds = %31, %rb_type.exit.thread8.i, %f_zero_p.exit, %f_zero_p.exit.thread, %sec_to_ms.exit
  %.0 = phi i64 [ %.0.i, %sec_to_ms.exit ], [ %.0.i, %f_zero_p.exit ], [ %36, %f_zero_p.exit.thread ], [ %.0.i, %rb_type.exit.thread8.i ], [ %.0.i, %31 ]
  ret i64 %.0
}